; Function Attrs: null_pointer_is_valid sspstrong uwtable
define hidden i32 @srvsvc_dissect_struct_NetShareInfo1(ptr noundef %0, i32 noundef %1, ptr noundef %2, ptr noundef %3, ptr noundef %4, ptr noundef %5, i32 noundef %6, i32 %7) local_unnamed_addr #0 {
  %9 = alloca i32, align 4
  %10 = getelementptr inbounds nuw i8, ptr %4, i64 64
  %11 = load ptr, ptr %10, align 8
  %12 = getelementptr inbounds nuw i8, ptr %11, i64 96
  %13 = load i32, ptr %12, align 8
  %14 = and i32 %13, 1
  %.not = icmp eq i32 %14, 0
  %15 = getelementptr inbounds nuw i8, ptr %4, i64 25
  %16 = load i8, ptr %15, align 1, !range !6, !noundef !7
  %17 = trunc nuw i8 %16 to i1
  br i1 %.not, label %23, label %18

18:                                               ; preds = %8
  %19 = and i32 %1, 7
  %.not47 = icmp eq i32 %19, 0
  %or.cond = or i1 %.not47, %17
  br i1 %or.cond, label %28, label %20

20:                                               ; preds = %18
  %21 = and i32 %1, -8
  %22 = add i32 %21, 8
  br label %28

23:                                               ; preds = %8
  %24 = and i32 %1, 3
  %.not46 = icmp eq i32 %24, 0
  %or.cond51 = or i1 %.not46, %17
  br i1 %or.cond51, label %28, label %25

25:                                               ; preds = %23
  %26 = and i32 %1, -4
  %27 = add i32 %26, 4
  br label %28

28:                                               ; preds = %23, %25, %18, %20
  %.0 = phi i32 [ %1, %18 ], [ %22, %20 ], [ %1, %23 ], [ %27, %25 ]
  %.not48 = icmp eq ptr %3, null
  br i1 %.not48, label %33, label %29

29:                                               ; preds = %28
  %30 = tail call ptr @proto_tree_add_item(ptr noundef nonnull %3, i32 noundef %6, ptr noundef %0, i32 noundef %.0, i32 noundef -1, i32 noundef 0)
  %31 = load i32, ptr @ett_srvsvc_srvsvc_NetShareInfo1, align 4
  %32 = tail call ptr @proto_item_add_subtree(ptr noundef %30, i32 noundef %31)
  br label %33

33:                                               ; preds = %29, %28
  %.044 = phi ptr [ %30, %29 ], [ null, %28 ]
  %.043 = phi ptr [ %32, %29 ], [ null, %28 ]
  %34 = load i32, ptr @hf_srvsvc_srvsvc_NetShareInfo1_name, align 4
  %35 = tail call i32 @dissect_ndr_embedded_pointer(ptr noundef %0, i32 noundef %.0, ptr noundef %2, ptr noundef %.043, ptr noundef %4, ptr noundef %5, ptr noundef nonnull @srvsvc_dissect_element_NetShareInfo1_name_, i32 noundef 2, ptr noundef nonnull @.str.1141, i32 noundef %34)
  %36 = load i32, ptr @hf_srvsvc_srvsvc_NetShareInfo1_type, align 4
  call void @llvm.lifetime.start.p0(i64 4, ptr nonnull %9) #4
  store i32 0, ptr %9, align 4
  %37 = call i32 @dissect_ndr_uint32(ptr noundef %0, i32 noundef %35, ptr noundef %2, ptr noundef %.043, ptr noundef %4, ptr noundef %5, i32 noundef %36, ptr noundef nonnull %9)
  call void @llvm.lifetime.end.p0(i64 4, ptr nonnull %9) #4
  %38 = load i32, ptr @hf_srvsvc_srvsvc_NetShareInfo1_comment, align 4
  %39 = call i32 @dissect_ndr_embedded_pointer(ptr noundef %0, i32 noundef %37, ptr noundef %2, ptr noundef %.043, ptr noundef %4, ptr noundef %5, ptr noundef nonnull @srvsvc_dissect_element_NetShareInfo1_comment_, i32 noundef 2, ptr noundef nonnull @.str.1143, i32 noundef %38)
  %40 = sub i32 %39, %.0
  call void @proto_item_set_len(ptr noundef %.044, i32 noundef %40)
  %41 = load ptr, ptr %10, align 8
  %42 = getelementptr inbounds nuw i8, ptr %41, i64 96
  %43 = load i32, ptr %42, align 8
  %44 = and i32 %43, 1
  %.not49 = icmp eq i32 %44, 0
  br i1 %.not49, label %53, label %45

45:                                               ; preds = %33
  %46 = getelementptr inbounds nuw i8, ptr %4, i64 25
  %47 = load i8, ptr %46, align 1, !range !6, !noundef !7
  %48 = trunc nuw i8 %47 to i1
  %49 = and i32 %39, 7
  %.not50 = icmp eq i32 %49, 0
  %or.cond52 = or i1 %.not50, %48
  br i1 %or.cond52, label %53, label %50

50:                                               ; preds = %45
  %51 = and i32 %39, -8
  %52 = add i32 %51, 8
  br label %53

53:                                               ; preds = %50, %45, %33
  %.1 = phi i32 [ %39, %45 ], [ %52, %50 ], [ %39, %33 ]
  ret i32 %.1
}